target datalayout = "e-m:e-p270:32:32-p271:32:32-p272:64:64-i64:64-i128:128-f80:128-n8:16:32:64-S128"
target triple = "x86_64-pc-linux-gnu"

@rb_cObject = external global i64, align 8
@.str = private unnamed_addr constant [12 x i8] c"ObjectSpace\00", align 1
@.str.1 = private unnamed_addr constant [11 x i8] c"memsize_of\00", align 1
@.str.2 = private unnamed_addr constant [15 x i8] c"memsize_of_all\00", align 1
@.str.3 = private unnamed_addr constant [19 x i8] c"count_objects_size\00", align 1
@.str.4 = private unnamed_addr constant [14 x i8] c"count_symbols\00", align 1
@.str.5 = private unnamed_addr constant [12 x i8] c"count_nodes\00", align 1
@.str.6 = private unnamed_addr constant [20 x i8] c"count_tdata_objects\00", align 1
@.str.7 = private unnamed_addr constant [20 x i8] c"count_imemo_objects\00", align 1
@.str.8 = private unnamed_addr constant [23 x i8] c"reachable_objects_from\00", align 1
@.str.9 = private unnamed_addr constant [28 x i8] c"reachable_objects_from_root\00", align 1
@.str.10 = private unnamed_addr constant [18 x i8] c"internal_class_of\00", align 1
@.str.11 = private unnamed_addr constant [18 x i8] c"internal_super_of\00", align 1
@.str.12 = private unnamed_addr constant [22 x i8] c"InternalObjectWrapper\00", align 1
@rb_cInternalObjectWrapper = internal global i64 0, align 8
@.str.13 = private unnamed_addr constant [5 x i8] c"type\00", align 1
@.str.14 = private unnamed_addr constant [8 x i8] c"inspect\00", align 1
@.str.15 = private unnamed_addr constant [19 x i8] c"internal_object_id\00", align 1

; Function Attrs: nounwind sspstrong uwtable
define void @Init_objspace() #0 {
  %1 = alloca i64, align 8
  call void @llvm.lifetime.start.p0(i64 8, ptr %1) #15
  %2 = load i64, ptr @rb_cObject, align 8, !tbaa !6
  %3 = call i64 @rb_intern(ptr noundef @.str)
  %4 = call i64 @rb_const_get(i64 noundef %2, i64 noundef %3)
  store i64 %4, ptr %1, align 8, !tbaa !6
  %5 = load i64, ptr %1, align 8, !tbaa !6
  call void @rb_define_module_function(i64 noundef %5, ptr noundef @.str.1, ptr noundef @memsize_of_m, i32 noundef 1)
  %6 = load i64, ptr %1, align 8, !tbaa !6
  call void @rb_define_module_function(i64 noundef %6, ptr noundef @.str.2, ptr noundef @memsize_of_all_m, i32 noundef -1)
  %7 = load i64, ptr %1, align 8, !tbaa !6
  call void @rb_define_module_function(i64 noundef %7, ptr noundef @.str.3, ptr noundef @count_objects_size, i32 noundef -1)
  %8 = load i64, ptr %1, align 8, !tbaa !6
  call void @rb_define_module_function(i64 noundef %8, ptr noundef @.str.4, ptr noundef @count_symbols, i32 noundef -1)
  %9 = load i64, ptr %1, align 8, !tbaa !6
  call void @rb_define_module_function(i64 noundef %9, ptr noundef @.str.5, ptr noundef @count_nodes, i32 noundef -1)
  %10 = load i64, ptr %1, align 8, !tbaa !6
  call void @rb_define_module_function(i64 noundef %10, ptr noundef @.str.6, ptr noundef @count_tdata_objects, i32 noundef -1)
  %11 = load i64, ptr %1, align 8, !tbaa !6
  call void @rb_define_module_function(i64 noundef %11, ptr noundef @.str.7, ptr noundef @count_imemo_objects, i32 noundef -1)
  %12 = load i64, ptr %1, align 8, !tbaa !6
  call void @rb_define_module_function(i64 noundef %12, ptr noundef @.str.8, ptr noundef @reachable_objects_from, i32 noundef 1)
  %13 = load i64, ptr %1, align 8, !tbaa !6
  call void @rb_define_module_function(i64 noundef %13, ptr noundef @.str.9, ptr noundef @reachable_objects_from_root, i32 noundef 0)
  %14 = load i64, ptr %1, align 8, !tbaa !6
  call void @rb_define_module_function(i64 noundef %14, ptr noundef @.str.10, ptr noundef @objspace_internal_class_of, i32 noundef 1)
  %15 = load i64, ptr %1, align 8, !tbaa !6
  call void @rb_define_module_function(i64 noundef %15, ptr noundef @.str.11, ptr noundef @objspace_internal_super_of, i32 noundef 1)
  %16 = load i64, ptr %1, align 8, !tbaa !6
  %17 = load i64, ptr @rb_cObject, align 8, !tbaa !6
  %18 = call i64 @rb_define_class_under(i64 noundef %16, ptr noundef @.str.12, i64 noundef %17)
  store i64 %18, ptr @rb_cInternalObjectWrapper, align 8, !tbaa !6
  %19 = load i64, ptr @rb_cInternalObjectWrapper, align 8, !tbaa !6
  call void @rb_undef_alloc_func(i64 noundef %19)
  %20 = load i64, ptr @rb_cInternalObjectWrapper, align 8, !tbaa !6
  call void @rb_define_method(i64 noundef %20, ptr noundef @.str.13, ptr noundef @iow_type, i32 noundef 0)
  %21 = load i64, ptr @rb_cInternalObjectWrapper, align 8, !tbaa !6
  call void @rb_define_method(i64 noundef %21, ptr noundef @.str.14, ptr noundef @iow_inspect, i32 noundef 0)
  %22 = load i64, ptr @rb_cInternalObjectWrapper, align 8, !tbaa !6
  call void @rb_define_method(i64 noundef %22, ptr noundef @.str.15, ptr noundef @iow_internal_object_id, i32 noundef 0)
  %23 = load i64, ptr %1, align 8, !tbaa !6
  call void @Init_object_tracing(i64 noundef %23)
  %24 = load i64, ptr %1, align 8, !tbaa !6
  call void @Init_objspace_dump(i64 noundef %24)
  call void @llvm.lifetime.end.p0(i64 8, ptr %1) #15
  ret void
}