; Function Attrs: nounwind sspstrong uwtable
define void @Init_objspace() local_unnamed_addr #0 {
  %1 = load i64, ptr @rb_cObject, align 8, !tbaa !6
  %2 = tail call i64 @rb_intern(ptr noundef nonnull @.str) #7
  %3 = tail call i64 @rb_const_get(i64 noundef %1, i64 noundef %2) #7
  tail call void @rb_define_module_function(i64 noundef %3, ptr noundef nonnull @.str.1, ptr noundef nonnull @memsize_of_m, i32 noundef 1) #7
  tail call void @rb_define_module_function(i64 noundef %3, ptr noundef nonnull @.str.2, ptr noundef nonnull @memsize_of_all_m, i32 noundef -1) #7
  tail call void @rb_define_module_function(i64 noundef %3, ptr noundef nonnull @.str.3, ptr noundef nonnull @count_objects_size, i32 noundef -1) #7
  tail call void @rb_define_module_function(i64 noundef %3, ptr noundef nonnull @.str.4, ptr noundef nonnull @count_symbols, i32 noundef -1) #7
  tail call void @rb_define_module_function(i64 noundef %3, ptr noundef nonnull @.str.5, ptr noundef nonnull @count_nodes, i32 noundef -1) #7
  tail call void @rb_define_module_function(i64 noundef %3, ptr noundef nonnull @.str.6, ptr noundef nonnull @count_tdata_objects, i32 noundef -1) #7
  tail call void @rb_define_module_function(i64 noundef %3, ptr noundef nonnull @.str.7, ptr noundef nonnull @count_imemo_objects, i32 noundef -1) #7
  tail call void @rb_define_module_function(i64 noundef %3, ptr noundef nonnull @.str.8, ptr noundef nonnull @reachable_objects_from, i32 noundef 1) #7
  tail call void @rb_define_module_function(i64 noundef %3, ptr noundef nonnull @.str.9, ptr noundef nonnull @reachable_objects_from_root, i32 noundef 0) #7
  tail call void @rb_define_module_function(i64 noundef %3, ptr noundef nonnull @.str.10, ptr noundef nonnull @objspace_internal_class_of, i32 noundef 1) #7
  tail call void @rb_define_module_function(i64 noundef %3, ptr noundef nonnull @.str.11, ptr noundef nonnull @objspace_internal_super_of, i32 noundef 1) #7
  %4 = load i64, ptr @rb_cObject, align 8, !tbaa !6
  %5 = tail call i64 @rb_define_class_under(i64 noundef %3, ptr noundef nonnull @.str.12, i64 noundef %4) #7
  store i64 %5, ptr @rb_cInternalObjectWrapper, align 8, !tbaa !6
  tail call void @rb_undef_alloc_func(i64 noundef %5) #7
  %6 = load i64, ptr @rb_cInternalObjectWrapper, align 8, !tbaa !6
  tail call void @rb_define_method(i64 noundef %6, ptr noundef nonnull @.str.13, ptr noundef nonnull @iow_type, i32 noundef 0) #7
  %7 = load i64, ptr @rb_cInternalObjectWrapper, align 8, !tbaa !6
  tail call void @rb_define_method(i64 noundef %7, ptr noundef nonnull @.str.14, ptr noundef nonnull @iow_inspect, i32 noundef 0) #7
  %8 = load i64, ptr @rb_cInternalObjectWrapper, align 8, !tbaa !6
  tail call void @rb_define_method(i64 noundef %8, ptr noundef nonnull @.str.15, ptr noundef nonnull @iow_internal_object_id, i32 noundef 0) #7
  tail call void @Init_object_tracing(i64 noundef %3) #7
  tail call void @Init_objspace_dump(i64 noundef %3) #7
  ret void
}